target datalayout = "e-m:e-p270:32:32-p271:32:32-p272:64:64-i64:64-i128:128-f80:128-n8:16:32:64-S128"
target triple = "x86_64-pc-linux-gnu"

%struct.Dl_info = type { ptr, ptr, ptr, ptr }

@.str.38 = private unnamed_addr constant [30 x i8] c"%sframe #1: %p %s(%p) %s(%p)\0A\00", align 1
@.str.39 = private unnamed_addr constant [17 x i8] c"%sframe #1: ---\0A\00", align 1
@.str.40 = private unnamed_addr constant [67 x i8] c"%sframe #2: [build Yosys with ENABLE_DEBUG for deeper backtraces]\0A\00", align 1

; Function Attrs: mustprogress uwtable
define void @_ZN5Yosys13log_backtraceEPKci(ptr noundef %0, i32 noundef %1) #5 {
  %3 = alloca ptr, align 8
  %4 = alloca i32, align 4
  %5 = alloca %struct.Dl_info, align 8
  %6 = alloca ptr, align 8
  store ptr %0, ptr %3, align 8
  store i32 %1, ptr %4, align 4
  %7 = load i32, ptr %4, align 4
  %8 = icmp sle i32 %7, 0
  br i1 %8, label %9, label %10

9:                                                ; preds = %2
  br label %36

10:                                               ; preds = %2
  %11 = call ptr @llvm.returnaddress(i32 0)
  store ptr %11, ptr %6, align 8
  %12 = icmp ne ptr %11, null
  br i1 %12, label %13, label %28

13:                                               ; preds = %10
  %14 = load ptr, ptr %6, align 8
  %15 = call i32 @dladdr(ptr noundef %14, ptr noundef %5) #3
  %16 = icmp ne i32 %15, 0
  br i1 %16, label %17, label %28

17:                                               ; preds = %13
  %18 = load ptr, ptr %3, align 8
  %19 = load ptr, ptr %6, align 8
  %20 = getelementptr inbounds %struct.Dl_info, ptr %5, i32 0, i32 0
  %21 = load ptr, ptr %20, align 8
  %22 = getelementptr inbounds %struct.Dl_info, ptr %5, i32 0, i32 1
  %23 = load ptr, ptr %22, align 8
  %24 = getelementptr inbounds %struct.Dl_info, ptr %5, i32 0, i32 2
  %25 = load ptr, ptr %24, align 8
  %26 = getelementptr inbounds %struct.Dl_info, ptr %5, i32 0, i32 3
  %27 = load ptr, ptr %26, align 8
  call void (ptr, ...) @_ZN5Yosys3logEPKcz(ptr noundef @.str.38, ptr noundef %18, ptr noundef %19, ptr noundef %21, ptr noundef %23, ptr noundef %25, ptr noundef %27)
  br label %30

28:                                               ; preds = %13, %10
  %29 = load ptr, ptr %3, align 8
  call void (ptr, ...) @_ZN5Yosys3logEPKcz(ptr noundef @.str.39, ptr noundef %29)
  br label %36

30:                                               ; preds = %17
  %31 = load i32, ptr %4, align 4
  %32 = icmp sle i32 %31, 1
  br i1 %32, label %33, label %34

33:                                               ; preds = %30
  br label %36

34:                                               ; preds = %30
  %35 = load ptr, ptr %3, align 8
  call void (ptr, ...) @_ZN5Yosys3logEPKcz(ptr noundef @.str.40, ptr noundef %35)
  br label %36

36:                                               ; preds = %34, %33, %28, %9
  ret void
}