; Function Attrs: mustprogress uwtable
define void @_ZN5Yosys13log_backtraceEPKci(ptr noundef %0, i32 noundef %1) local_unnamed_addr #4 {
  %3 = alloca %struct.Dl_info, align 8
  %4 = icmp slt i32 %1, 1
  br i1 %4, label %18, label %5

5:                                                ; preds = %2
  %6 = tail call ptr @llvm.returnaddress(i32 0)
  %.not = icmp eq ptr %6, null
  br i1 %.not, label %.sink.split, label %7

7:                                                ; preds = %5
  %8 = call i32 @dladdr(ptr noundef nonnull %6, ptr noundef nonnull %3) #27
  %.not7 = icmp eq i32 %8, 0
  br i1 %.not7, label %.sink.split, label %9

9:                                                ; preds = %7
  %10 = load ptr, ptr %3, align 8
  %11 = getelementptr inbounds i8, ptr %3, i64 8
  %12 = load ptr, ptr %11, align 8
  %13 = getelementptr inbounds i8, ptr %3, i64 16
  %14 = load ptr, ptr %13, align 8
  %15 = getelementptr inbounds i8, ptr %3, i64 24
  %16 = load ptr, ptr %15, align 8
  call void (ptr, ...) @_ZN5Yosys3logEPKcz(ptr noundef nonnull @.str.38, ptr noundef %0, ptr noundef nonnull %6, ptr noundef %10, ptr noundef %12, ptr noundef %14, ptr noundef %16)
  %17 = icmp eq i32 %1, 1
  br i1 %17, label %18, label %.sink.split

.sink.split:                                      ; preds = %9, %5, %7
  %.str.40.sink = phi ptr [ @.str.39, %7 ], [ @.str.39, %5 ], [ @.str.40, %9 ]
  call void (ptr, ...) @_ZN5Yosys3logEPKcz(ptr noundef nonnull %.str.40.sink, ptr noundef %0)
  br label %18

18:                                               ; preds = %.sink.split, %9, %2
  ret void
}